; Function Attrs: mustprogress uwtable
define void @_ZN4toku8treenode4freeEPS0_(ptr noundef %0) local_unnamed_addr #5 align 2 personality ptr @__gxx_personality_v0 {
  %2 = getelementptr inbounds nuw i8, ptr %0, i64 48
  tail call void @_ZN4toku8keyrange7destroyEv(ptr noundef nonnull align 8 dereferenceable(81) %2)
  %3 = getelementptr inbounds nuw i8, ptr %0, i64 152
  %4 = load ptr, ptr %3, align 8, !tbaa !25
  %.not = icmp eq ptr %4, null
  br i1 %.not, label %11, label %5

5:                                                ; preds = %1
  %6 = getelementptr inbounds nuw i8, ptr %4, i64 16
  %7 = load ptr, ptr %6, align 8, !tbaa !43
  invoke void @_ZNSt8_Rb_treeImmSt9_IdentityImESt4lessImESaImEE8_M_eraseEPSt13_Rb_tree_nodeImE(ptr noundef nonnull align 8 dereferenceable(48) %4, ptr noundef %7)
          to label %_ZNSt3setImSt4lessImESaImEED2Ev.exit unwind label %8

8:                                                ; preds = %5
  %9 = landingpad { ptr, i32 }
          catch ptr null
  %10 = extractvalue { ptr, i32 } %9, 0
  tail call void @__clang_call_terminate(ptr %10) #20
  unreachable

_ZNSt3setImSt4lessImESaImEED2Ev.exit:             ; preds = %5
  tail call void @_ZdlPvm(ptr noundef nonnull %4, i64 noundef 48) #21
  store ptr null, ptr %3, align 8, !tbaa !25
  br label %11

11:                                               ; preds = %_ZNSt3setImSt4lessImESaImEED2Ev.exit, %1
  %12 = getelementptr inbounds nuw i8, ptr %0, i64 200
  %13 = load i8, ptr %12, align 8, !tbaa !21, !range !30, !noundef !31
  %14 = trunc nuw i8 %13 to i1
  br i1 %14, label %15, label %17

15:                                               ; preds = %11
  %16 = getelementptr inbounds nuw i8, ptr %0, i64 201
  store i8 1, ptr %16, align 1, !tbaa !22
  br label %19

17:                                               ; preds = %11
  %18 = tail call i32 @pthread_mutex_destroy(ptr noundef nonnull %0) #17
  tail call void @_Z9toku_freePv(ptr noundef nonnull %0)
  br label %19

19:                                               ; preds = %17, %15
  ret void
}